; Function Attrs: mustprogress uwtable
define void @_ZN2cv4gapi4s11n9serializeERNS1_8IOStreamERKSt6vectorINSt7__cxx1112basic_stringIcSt11char_traitsIcESaIcEEESaISA_EE(ptr noundef nonnull align 8 dereferenceable(8) %0, ptr noundef nonnull readonly align 8 captures(none) dereferenceable(24) %1) local_unnamed_addr #3 {
  %3 = getelementptr inbounds nuw i8, ptr %1, i64 8
  %4 = load ptr, ptr %3, align 8, !tbaa !153
  %5 = load ptr, ptr %1, align 8, !tbaa !156
  %6 = ptrtoint ptr %4 to i64
  %7 = ptrtoint ptr %5 to i64
  %8 = sub i64 %6, %7
  %9 = lshr exact i64 %8, 5
  %10 = trunc i64 %9 to i32
  %11 = load ptr, ptr %0, align 8, !tbaa !8
  %12 = getelementptr inbounds nuw i8, ptr %11, i64 64
  %13 = load ptr, ptr %12, align 8
  %14 = tail call noundef nonnull align 8 dereferenceable(8) ptr %13(ptr noundef nonnull align 8 dereferenceable(8) %0, i32 noundef %10)
  %15 = load ptr, ptr %1, align 8, !tbaa !157
  %16 = load ptr, ptr %3, align 8, !tbaa !157
  %.not11.i = icmp eq ptr %15, %16
  br i1 %.not11.i, label %_ZN2cv4gapi4s11nlsINSt7__cxx1112basic_stringIcSt11char_traitsIcESaIcEEEEERNS1_8IOStreamESA_RKSt6vectorIT_SaISC_EE.exit, label %.lr.ph.i

.lr.ph.i:                                         ; preds = %2, %.lr.ph.i
  %.sroa.08.012.i = phi ptr [ %21, %.lr.ph.i ], [ %15, %2 ]
  %17 = load ptr, ptr %0, align 8, !tbaa !8
  %18 = getelementptr inbounds nuw i8, ptr %17, i64 96
  %19 = load ptr, ptr %18, align 8
  %20 = tail call noundef nonnull align 8 dereferenceable(8) ptr %19(ptr noundef nonnull align 8 dereferenceable(8) %0, ptr noundef nonnull align 8 dereferenceable(32) %.sroa.08.012.i)
  %21 = getelementptr inbounds nuw i8, ptr %.sroa.08.012.i, i64 32
  %.not.i = icmp eq ptr %21, %16
  br i1 %.not.i, label %_ZN2cv4gapi4s11nlsINSt7__cxx1112basic_stringIcSt11char_traitsIcESaIcEEEEERNS1_8IOStreamESA_RKSt6vectorIT_SaISC_EE.exit, label %.lr.ph.i

_ZN2cv4gapi4s11nlsINSt7__cxx1112basic_stringIcSt11char_traitsIcESaIcEEEEERNS1_8IOStreamESA_RKSt6vectorIT_SaISC_EE.exit: ; preds = %.lr.ph.i, %2
  ret void
}